target datalayout = "e-m:e-p270:32:32-p271:32:32-p272:64:64-i64:64-i128:128-f80:128-n8:16:32:64-S128"
target triple = "x86_64-pc-linux-gnu"

%struct.ZSTD_customMem = type { ptr, ptr, ptr }
%struct.ZSTD_frameParameters = type { i32, i32, i32 }
%struct.ZSTD_compressionParameters = type { i32, i32, i32, i32, i32, i32, i32 }
%struct.ZSTD_CCtx_s = type { i32, i32, i32, %struct.ZSTD_CCtx_params_s, %struct.ZSTD_CCtx_params_s, %struct.ZSTD_CCtx_params_s, i32, i64, %struct.ZSTD_cwksp, i64, i64, i64, i64, %struct.XXH64_state_s, %struct.ZSTD_customMem, ptr, i64, %struct.SeqCollector, i32, i32, %struct.seqStore_t, %struct.ldmState_t, ptr, i64, %struct.rawSeqStore_t, %struct.ZSTD_blockState_t, ptr, i32, ptr, i64, i64, i64, i64, ptr, i64, i64, i64, i32, i32, %struct.ZSTD_inBuffer_s, i64, i64, %struct.ZSTD_localDict, ptr, %struct.ZSTD_prefixDict_s, i64, %struct.ZSTD_blockSplitCtx, %struct.ZSTD_externalMatchCtx }
%struct.ZSTD_CCtx_params_s = type { i32, %struct.ZSTD_compressionParameters, %struct.ZSTD_frameParameters, i32, i32, i64, i32, i32, i32, i32, i64, i32, i32, %struct.ldmParams_t, i32, i32, i32, i32, i32, i32, i32, i32, %struct.ZSTD_customMem, i32, i32, i32, i64, i32 }
%struct.ldmParams_t = type { i32, i32, i32, i32, i32, i32 }
%struct.ZSTD_cwksp = type { ptr, ptr, ptr, ptr, ptr, ptr, ptr, i8, i32, i32, i32 }
%struct.XXH64_state_s = type { i64, [4 x i64], [4 x i64], i32, i32, i64 }
%struct.SeqCollector = type { i32, ptr, i64, i64 }
%struct.seqStore_t = type { ptr, ptr, ptr, ptr, ptr, ptr, ptr, i64, i64, i32, i32 }
%struct.ldmState_t = type { %struct.ZSTD_window_t, ptr, i32, ptr, [64 x i64], [64 x %struct.ldmMatchCandidate_t] }
%struct.ZSTD_window_t = type { ptr, ptr, ptr, i32, i32, i32 }
%struct.ldmMatchCandidate_t = type { ptr, i32, i32, ptr }
%struct.rawSeqStore_t = type { ptr, i64, i64, i64, i64 }
%struct.ZSTD_blockState_t = type { ptr, ptr, %struct.ZSTD_matchState_t }
%struct.ZSTD_matchState_t = type { %struct.ZSTD_window_t, i32, i32, i32, i32, ptr, [8 x i32], i64, i32, ptr, ptr, ptr, i32, i32, %struct.optState_t, ptr, %struct.ZSTD_compressionParameters, ptr, i32, i32 }
%struct.optState_t = type { ptr, ptr, ptr, ptr, ptr, ptr, i32, i32, i32, i32, i32, i32, i32, i32, i32, ptr, i32 }
%struct.ZSTD_inBuffer_s = type { ptr, i64, i64 }
%struct.ZSTD_localDict = type { ptr, ptr, i64, i32, ptr }
%struct.ZSTD_prefixDict_s = type { ptr, i64, i32 }
%struct.ZSTD_blockSplitCtx = type { %struct.seqStore_t, %struct.seqStore_t, %struct.seqStore_t, %struct.seqStore_t, %struct.seqStore_t, [196 x i32], %struct.ZSTD_entropyCTablesMetadata_t }
%struct.ZSTD_entropyCTablesMetadata_t = type { %struct.ZSTD_hufCTablesMetadata_t, %struct.ZSTD_fseCTablesMetadata_t }
%struct.ZSTD_hufCTablesMetadata_t = type { i32, [128 x i8], i64 }
%struct.ZSTD_fseCTablesMetadata_t = type { i32, i32, i32, [133 x i8], i64, i64 }
%struct.ZSTD_externalMatchCtx = type { ptr, ptr, ptr, i64 }
%struct.ZSTD_Trace = type { i32, i32, i32, i32, i64, i64, i64, ptr, ptr, ptr }

; Function Attrs: nounwind uwtable
define dso_local void @ZSTD_CCtx_trace(ptr noundef %0, i64 noundef %1) #0 {
  %3 = alloca ptr, align 8
  %4 = alloca i64, align 8
  %5 = alloca i32, align 4
  %6 = alloca %struct.ZSTD_Trace, align 8
  store ptr %0, ptr %3, align 8
  store i64 %1, ptr %4, align 8
  %7 = load ptr, ptr %3, align 8
  %8 = getelementptr inbounds %struct.ZSTD_CCtx_s, ptr %7, i32 0, i32 45
  %9 = load i64, ptr %8, align 8
  %10 = icmp ne i64 %9, 0
  br i1 %10, label %11, label %61

11:                                               ; preds = %2
  %12 = icmp ne ptr @ZSTD_trace_compress_end, null
  br i1 %12, label %13, label %61

13:                                               ; preds = %11
  %14 = load ptr, ptr %3, align 8
  %15 = getelementptr inbounds %struct.ZSTD_CCtx_s, ptr %14, i32 0, i32 29
  %16 = load i64, ptr %15, align 8
  %17 = icmp ugt i64 %16, 0
  br i1 %17, label %29, label %18

18:                                               ; preds = %13
  %19 = load ptr, ptr %3, align 8
  %20 = getelementptr inbounds %struct.ZSTD_CCtx_s, ptr %19, i32 0, i32 34
  %21 = load i64, ptr %20, align 8
  %22 = icmp ugt i64 %21, 0
  br i1 %22, label %29, label %23

23:                                               ; preds = %18
  %24 = load ptr, ptr %3, align 8
  %25 = getelementptr inbounds %struct.ZSTD_CCtx_s, ptr %24, i32 0, i32 4
  %26 = getelementptr inbounds %struct.ZSTD_CCtx_params_s, ptr %25, i32 0, i32 9
  %27 = load i32, ptr %26, align 4
  %28 = icmp sgt i32 %27, 0
  br label %29

29:                                               ; preds = %23, %18, %13
  %30 = phi i1 [ true, %18 ], [ true, %13 ], [ %28, %23 ]
  %31 = zext i1 %30 to i32
  store i32 %31, ptr %5, align 4
  call void @llvm.memset.p0.i64(ptr align 8 %6, i8 0, i64 64, i1 false)
  %32 = getelementptr inbounds %struct.ZSTD_Trace, ptr %6, i32 0, i32 0
  store i32 10505, ptr %32, align 8
  %33 = load i32, ptr %5, align 4
  %34 = getelementptr inbounds %struct.ZSTD_Trace, ptr %6, i32 0, i32 1
  store i32 %33, ptr %34, align 4
  %35 = load ptr, ptr %3, align 8
  %36 = getelementptr inbounds %struct.ZSTD_CCtx_s, ptr %35, i32 0, i32 6
  %37 = load i32, ptr %36, align 8
  %38 = getelementptr inbounds %struct.ZSTD_Trace, ptr %6, i32 0, i32 2
  store i32 %37, ptr %38, align 8
  %39 = load ptr, ptr %3, align 8
  %40 = getelementptr inbounds %struct.ZSTD_CCtx_s, ptr %39, i32 0, i32 7
  %41 = load i64, ptr %40, align 8
  %42 = getelementptr inbounds %struct.ZSTD_Trace, ptr %6, i32 0, i32 4
  store i64 %41, ptr %42, align 8
  %43 = load ptr, ptr %3, align 8
  %44 = getelementptr inbounds %struct.ZSTD_CCtx_s, ptr %43, i32 0, i32 11
  %45 = load i64, ptr %44, align 8
  %46 = getelementptr inbounds %struct.ZSTD_Trace, ptr %6, i32 0, i32 5
  store i64 %45, ptr %46, align 8
  %47 = load ptr, ptr %3, align 8
  %48 = getelementptr inbounds %struct.ZSTD_CCtx_s, ptr %47, i32 0, i32 12
  %49 = load i64, ptr %48, align 8
  %50 = load i64, ptr %4, align 8
  %51 = add i64 %49, %50
  %52 = getelementptr inbounds %struct.ZSTD_Trace, ptr %6, i32 0, i32 6
  store i64 %51, ptr %52, align 8
  %53 = load ptr, ptr %3, align 8
  %54 = getelementptr inbounds %struct.ZSTD_CCtx_s, ptr %53, i32 0, i32 4
  %55 = getelementptr inbounds %struct.ZSTD_Trace, ptr %6, i32 0, i32 7
  store ptr %54, ptr %55, align 8
  %56 = load ptr, ptr %3, align 8
  %57 = getelementptr inbounds %struct.ZSTD_Trace, ptr %6, i32 0, i32 8
  store ptr %56, ptr %57, align 8
  %58 = load ptr, ptr %3, align 8
  %59 = getelementptr inbounds %struct.ZSTD_CCtx_s, ptr %58, i32 0, i32 45
  %60 = load i64, ptr %59, align 8
  call void @ZSTD_trace_compress_end(i64 noundef %60, ptr noundef %6)
  br label %61

61:                                               ; preds = %29, %11, %2
  %62 = load ptr, ptr %3, align 8
  %63 = getelementptr inbounds %struct.ZSTD_CCtx_s, ptr %62, i32 0, i32 45
  store i64 0, ptr %63, align 8
  ret void
}