; Function Attrs: nounwind uwtable
define dso_local void @ZSTD_CCtx_trace(ptr noundef %0, i64 noundef %1) local_unnamed_addr #1 {
  %3 = alloca %struct.ZSTD_Trace, align 8
  %4 = getelementptr inbounds nuw i8, ptr %0, i64 3704
  %5 = load i64, ptr %4, align 8
  %6 = icmp ne i64 %5, 0
  %7 = icmp ne ptr @ZSTD_trace_compress_end, null
  %or.cond = and i1 %7, %6
  br i1 %or.cond, label %8, label %39

8:                                                ; preds = %2
  %9 = getelementptr inbounds nuw i8, ptr %0, i64 3520
  %10 = load i64, ptr %9, align 8
  %.not = icmp eq i64 %10, 0
  br i1 %.not, label %11, label %19

11:                                               ; preds = %8
  %12 = getelementptr inbounds nuw i8, ptr %0, i64 3560
  %13 = load i64, ptr %12, align 8
  %.not13 = icmp eq i64 %13, 0
  br i1 %.not13, label %14, label %19

14:                                               ; preds = %11
  %15 = getelementptr inbounds nuw i8, ptr %0, i64 300
  %16 = load i32, ptr %15, align 4
  %17 = icmp sgt i32 %16, 0
  %18 = zext i1 %17 to i32
  br label %19

19:                                               ; preds = %14, %11, %8
  %20 = phi i32 [ 1, %11 ], [ 1, %8 ], [ %18, %14 ]
  %21 = getelementptr inbounds nuw i8, ptr %3, i64 8
  call void @llvm.memset.p0.i64(ptr noundef nonnull align 8 dereferenceable(64) %21, i8 0, i64 56, i1 false)
  store i32 10505, ptr %3, align 8
  %22 = getelementptr inbounds nuw i8, ptr %3, i64 4
  store i32 %20, ptr %22, align 4
  %23 = getelementptr inbounds nuw i8, ptr %0, i64 640
  %24 = load i32, ptr %23, align 8
  %25 = getelementptr inbounds nuw i8, ptr %3, i64 8
  store i32 %24, ptr %25, align 8
  %26 = getelementptr inbounds nuw i8, ptr %0, i64 648
  %27 = load i64, ptr %26, align 8
  %28 = getelementptr inbounds nuw i8, ptr %3, i64 16
  store i64 %27, ptr %28, align 8
  %29 = getelementptr inbounds nuw i8, ptr %0, i64 744
  %30 = load i64, ptr %29, align 8
  %31 = getelementptr inbounds nuw i8, ptr %3, i64 24
  store i64 %30, ptr %31, align 8
  %32 = getelementptr inbounds nuw i8, ptr %0, i64 752
  %33 = load i64, ptr %32, align 8
  %34 = add i64 %33, %1
  %35 = getelementptr inbounds nuw i8, ptr %3, i64 32
  store i64 %34, ptr %35, align 8
  %36 = getelementptr inbounds nuw i8, ptr %0, i64 224
  %37 = getelementptr inbounds nuw i8, ptr %3, i64 40
  store ptr %36, ptr %37, align 8
  %38 = getelementptr inbounds nuw i8, ptr %3, i64 48
  store ptr %0, ptr %38, align 8
  call void @ZSTD_trace_compress_end(i64 noundef %5, ptr noundef nonnull %3) #27
  br label %39

39:                                               ; preds = %19, %2
  store i64 0, ptr %4, align 8
  ret void
}